
app_pwm:     file format elf32-littlearm


Disassembly of section .init:

000082bc <_init>:
    82bc:	e92d4008 	push	{r3, lr}
    82c0:	eb000026 	bl	8360 <call_weak_fn>
    82c4:	e8bd8008 	pop	{r3, pc}

Disassembly of section .plt:

000082c8 <.plt>:
    82c8:	e52de004 	push	{lr}		; (str lr, [sp, #-4]!)
    82cc:	e59fe004 	ldr	lr, [pc, #4]	; 82d8 <_init+0x1c>
    82d0:	e08fe00e 	add	lr, pc, lr
    82d4:	e5bef008 	ldr	pc, [lr, #8]!
    82d8:	000082c4 	andeq	r8, r0, r4, asr #5
    82dc:	e28fc600 	add	ip, pc, #0, 12
    82e0:	e28cca08 	add	ip, ip, #8, 20	; 0x8000
    82e4:	e5bcf2c4 	ldr	pc, [ip, #708]!	; 0x2c4
    82e8:	e28fc600 	add	ip, pc, #0, 12
    82ec:	e28cca08 	add	ip, ip, #8, 20	; 0x8000
    82f0:	e5bcf2bc 	ldr	pc, [ip, #700]!	; 0x2bc
    82f4:	e28fc600 	add	ip, pc, #0, 12
    82f8:	e28cca08 	add	ip, ip, #8, 20	; 0x8000
    82fc:	e5bcf2b4 	ldr	pc, [ip, #692]!	; 0x2b4
    8300:	e28fc600 	add	ip, pc, #0, 12
    8304:	e28cca08 	add	ip, ip, #8, 20	; 0x8000
    8308:	e5bcf2ac 	ldr	pc, [ip, #684]!	; 0x2ac
    830c:	e28fc600 	add	ip, pc, #0, 12
    8310:	e28cca08 	add	ip, ip, #8, 20	; 0x8000
    8314:	e5bcf2a4 	ldr	pc, [ip, #676]!	; 0x2a4
    8318:	e28fc600 	add	ip, pc, #0, 12
    831c:	e28cca08 	add	ip, ip, #8, 20	; 0x8000
    8320:	e5bcf29c 	ldr	pc, [ip, #668]!	; 0x29c

Disassembly of section .text:

00008324 <_start>:
    8324:	e3a0b000 	mov	fp, #0
    8328:	e3a0e000 	mov	lr, #0
    832c:	e49d1004 	pop	{r1}		; (ldr r1, [sp], #4)
    8330:	e1a0200d 	mov	r2, sp
    8334:	e52d2004 	push	{r2}		; (str r2, [sp, #-4]!)
    8338:	e52d0004 	push	{r0}		; (str r0, [sp, #-4]!)
    833c:	e59fc010 	ldr	ip, [pc, #16]	; 8354 <_start+0x30>
    8340:	e52dc004 	push	{ip}		; (str ip, [sp, #-4]!)
    8344:	e59f000c 	ldr	r0, [pc, #12]	; 8358 <_start+0x34>
    8348:	e59f300c 	ldr	r3, [pc, #12]	; 835c <_start+0x38>
    834c:	ebffffe5 	bl	82e8 <_init+0x2c>
    8350:	ebffffed 	bl	830c <_init+0x50>
    8354:	00008480 	andeq	r8, r0, r0, lsl #9
    8358:	000083d0 	ldrdeq	r8, [r0], -r0
    835c:	00008420 	andeq	r8, r0, r0, lsr #8

00008360 <call_weak_fn>:
    8360:	e59f3014 	ldr	r3, [pc, #20]	; 837c <call_weak_fn+0x1c>
    8364:	e59f2014 	ldr	r2, [pc, #20]	; 8380 <call_weak_fn+0x20>
    8368:	e08f3003 	add	r3, pc, r3
    836c:	e7932002 	ldr	r2, [r3, r2]
    8370:	e3520000 	cmp	r2, #0
    8374:	012fff1e 	bxeq	lr
    8378:	eaffffdd 	b	82f4 <_init+0x38>
    837c:	0000822c 	andeq	r8, r0, ip, lsr #4
    8380:	00000024 	andeq	r0, r0, r4, lsr #32

00008384 <__do_global_dtors_aux>:
    8384:	e59f3010 	ldr	r3, [pc, #16]	; 839c <__do_global_dtors_aux+0x18>
    8388:	e5d32000 	ldrb	r2, [r3]
    838c:	e3520000 	cmp	r2, #0
    8390:	03a02001 	moveq	r2, #1
    8394:	05c32000 	strbeq	r2, [r3]
    8398:	e12fff1e 	bx	lr
    839c:	000105cc 	andeq	r0, r1, ip, asr #11

000083a0 <frame_dummy>:
    83a0:	e59f0020 	ldr	r0, [pc, #32]	; 83c8 <frame_dummy+0x28>
    83a4:	e92d4008 	push	{r3, lr}
    83a8:	e5903000 	ldr	r3, [r0]
    83ac:	e3530000 	cmp	r3, #0
    83b0:	08bd8008 	popeq	{r3, pc}
    83b4:	e59f3010 	ldr	r3, [pc, #16]	; 83cc <frame_dummy+0x2c>
    83b8:	e3530000 	cmp	r3, #0
    83bc:	08bd8008 	popeq	{r3, pc}
    83c0:	e12fff33 	blx	r3
    83c4:	e8bd8008 	pop	{r3, pc}
    83c8:	000104b0 			; <UNDEFINED> instruction: 0x000104b0
    83cc:	00000000 	andeq	r0, r0, r0

000083d0 <main>:
    83d0:	e92d4800 	push	{fp, lr}
    83d4:	e28db004 	add	fp, sp, #4
    83d8:	e24dd010 	sub	sp, sp, #16
    83dc:	e50b0010 	str	r0, [fp, #-16]
    83e0:	e50b1014 	str	r1, [fp, #-20]
    83e4:	e59f0030 	ldr	r0, [pc, #48]	; 841c <main+0x4c>
    83e8:	e3a01002 	mov	r1, #2
    83ec:	ebffffc3 	bl	8300 <_init+0x44>
    83f0:	e50b0008 	str	r0, [fp, #-8]
    83f4:	e3a00002 	mov	r0, #2
    83f8:	ebffffb7 	bl	82dc <_init+0x20>
    83fc:	e51b0008 	ldr	r0, [fp, #-8]
    8400:	ebffffc4 	bl	8318 <_init+0x5c>
    8404:	e3a00004 	mov	r0, #4
    8408:	ebffffb3 	bl	82dc <_init+0x20>
    840c:	e3a03000 	mov	r3, #0
    8410:	e1a00003 	mov	r0, r3
    8414:	e24bd004 	sub	sp, fp, #4
    8418:	e8bd8800 	pop	{fp, pc}
    841c:	00008490 	muleq	r0, r0, r4

00008420 <__libc_csu_init>:
    8420:	e92d45f8 	push	{r3, r4, r5, r6, r7, r8, sl, lr}
    8424:	e59f504c 	ldr	r5, [pc, #76]	; 8478 <__libc_csu_init+0x58>
    8428:	e59fa04c 	ldr	sl, [pc, #76]	; 847c <__libc_csu_init+0x5c>
    842c:	e08f5005 	add	r5, pc, r5
    8430:	e08fa00a 	add	sl, pc, sl
    8434:	e065a00a 	rsb	sl, r5, sl
    8438:	e1a06000 	mov	r6, r0
    843c:	e1a07001 	mov	r7, r1
    8440:	e1a08002 	mov	r8, r2
    8444:	ebffff9c 	bl	82bc <_init>
    8448:	e1b0a14a 	asrs	sl, sl, #2
    844c:	08bd85f8 	popeq	{r3, r4, r5, r6, r7, r8, sl, pc}
    8450:	e3a04000 	mov	r4, #0
    8454:	e4953004 	ldr	r3, [r5], #4
    8458:	e1a00006 	mov	r0, r6
    845c:	e1a01007 	mov	r1, r7
    8460:	e1a02008 	mov	r2, r8
    8464:	e2844001 	add	r4, r4, #1
    8468:	e12fff33 	blx	r3
    846c:	e154000a 	cmp	r4, sl
    8470:	1afffff7 	bne	8454 <__libc_csu_init+0x34>
    8474:	e8bd85f8 	pop	{r3, r4, r5, r6, r7, r8, sl, pc}
    8478:	00008074 	andeq	r8, r0, r4, ror r0
    847c:	00008074 	andeq	r8, r0, r4, ror r0

00008480 <__libc_csu_fini>:
    8480:	e12fff1e 	bx	lr

Disassembly of section .fini:

00008484 <_fini>:
    8484:	e92d4008 	push	{r3, lr}
    8488:	e8bd8008 	pop	{r3, pc}
